; Function Attrs: mustprogress uwtable
define void @_ZNK4cvc56parser18DeclarePoolCommand8toStreamERSo(ptr noundef nonnull align 8 dereferenceable(96) %0, ptr noundef nonnull align 8 dereferenceable(8) %1) unnamed_addr #3 align 2 personality ptr @__gxx_personality_v0 {
  %3 = alloca %"class.cvc5::internal::TypeNode", align 8
  %4 = alloca %"class.std::vector", align 8
  %5 = tail call noundef ptr @_ZN4cvc58internal7Printer10getPrinterERSo(ptr noundef nonnull align 8 dereferenceable(8) %1)
  %6 = getelementptr inbounds nuw i8, ptr %0, i64 48
  tail call void @llvm.experimental.noalias.scope.decl(metadata !237)
  %7 = tail call noundef nonnull align 8 dereferenceable(8) ptr @_ZNK4cvc54Sort11getTypeNodeEv(ptr noundef nonnull align 8 dereferenceable(24) %6), !noalias !237
  %8 = load ptr, ptr %7, align 8, !tbaa !68, !noalias !237
  store ptr %8, ptr %3, align 8, !tbaa !68, !alias.scope !237
  %9 = load i64, ptr %8, align 8, !noalias !237
  %10 = lshr i64 %9, 40
  %11 = trunc nuw nsw i64 %10 to i32
  %12 = and i32 %11, 1048575
  %13 = icmp samesign ult i32 %12, 1048574
  br i1 %13, label %14, label %19, !prof !67

14:                                               ; preds = %2
  %15 = add i64 %9, 1099511627776
  %16 = and i64 %15, 1152920405095219200
  %17 = and i64 %9, -1152920405095219201
  %18 = or disjoint i64 %16, %17
  store i64 %18, ptr %8, align 8, !noalias !237
  br label %_ZN4cvc56parser3Cmd14sortToTypeNodeERKNS_4SortE.exit

19:                                               ; preds = %2
  %20 = icmp eq i32 %12, 1048574
  br i1 %20, label %21, label %_ZN4cvc56parser3Cmd14sortToTypeNodeERKNS_4SortE.exit, !prof !32

21:                                               ; preds = %19
  %22 = or i64 %9, 1152920405095219200
  store i64 %22, ptr %8, align 8, !noalias !237
  tail call void @_ZN4cvc58internal4expr9NodeValue20markRefCountMaxedOutEv(ptr noundef nonnull align 8 dereferenceable(24) %8), !noalias !237
  br label %_ZN4cvc56parser3Cmd14sortToTypeNodeERKNS_4SortE.exit

_ZN4cvc56parser3Cmd14sortToTypeNodeERKNS_4SortE.exit: ; preds = %14, %19, %21
  call void @llvm.lifetime.start.p0(i64 24, ptr nonnull %4) #33
  %23 = getelementptr inbounds nuw i8, ptr %0, i64 72
  invoke void @_ZN4cvc54Term17termVectorToNodesERKSt6vectorIS0_SaIS0_EE(ptr dead_on_unwind nonnull writable sret(%"class.std::vector") align 8 %4, ptr noundef nonnull align 8 dereferenceable(24) %23)
          to label %_ZN4cvc56parser3Cmd17termVectorToNodesERKSt6vectorINS_4TermESaIS3_EE.exit unwind label %66

_ZN4cvc56parser3Cmd17termVectorToNodesERKSt6vectorINS_4TermESaIS3_EE.exit: ; preds = %_ZN4cvc56parser3Cmd14sortToTypeNodeERKNS_4SortE.exit
  %24 = getelementptr inbounds nuw i8, ptr %0, i64 16
  %25 = load ptr, ptr %5, align 8, !tbaa !6
  %26 = getelementptr inbounds nuw i8, ptr %25, i64 160
  %27 = load ptr, ptr %26, align 8
  invoke void %27(ptr noundef nonnull align 8 dereferenceable(8) %5, ptr noundef nonnull align 8 dereferenceable(8) %1, ptr noundef nonnull align 8 dereferenceable(32) %24, ptr noundef nonnull %3, ptr noundef nonnull align 8 dereferenceable(24) %4)
          to label %28 unwind label %68

28:                                               ; preds = %_ZN4cvc56parser3Cmd17termVectorToNodesERKSt6vectorINS_4TermESaIS3_EE.exit
  %29 = load ptr, ptr %4, align 8, !tbaa !118
  %30 = getelementptr inbounds nuw i8, ptr %4, i64 8
  %31 = load ptr, ptr %30, align 8, !tbaa !120
  %.not4.i.i.i.i = icmp eq ptr %29, %31
  br i1 %.not4.i.i.i.i, label %_ZSt8_DestroyIPN4cvc58internal12NodeTemplateILb1EEES3_EvT_S5_RSaIT0_E.exit.i, label %.lr.ph.i.i.i.i

.lr.ph.i.i.i.i:                                   ; preds = %28, %_ZSt8_DestroyIN4cvc58internal12NodeTemplateILb1EEEEvPT_.exit.i.i.i.i
  %.05.i.i.i.i = phi ptr [ %45, %_ZSt8_DestroyIN4cvc58internal12NodeTemplateILb1EEEEvPT_.exit.i.i.i.i ], [ %29, %28 ]
  %32 = load ptr, ptr %.05.i.i.i.i, align 8, !tbaa !64
  %33 = load i64, ptr %32, align 8
  %34 = and i64 %33, 1152920405095219200
  %.not.i.i.i.i.i.i.i = icmp eq i64 %34, 1152920405095219200
  br i1 %.not.i.i.i.i.i.i.i, label %_ZSt8_DestroyIN4cvc58internal12NodeTemplateILb1EEEEvPT_.exit.i.i.i.i, label %35, !prof !32

35:                                               ; preds = %.lr.ph.i.i.i.i
  %36 = add i64 %33, 1152920405095219200
  %37 = and i64 %36, 1152920405095219200
  %38 = and i64 %33, -1152920405095219201
  %39 = or disjoint i64 %37, %38
  store i64 %39, ptr %32, align 8
  %40 = icmp eq i64 %37, 0
  br i1 %40, label %41, label %_ZSt8_DestroyIN4cvc58internal12NodeTemplateILb1EEEEvPT_.exit.i.i.i.i, !prof !32

41:                                               ; preds = %35
  invoke void @_ZN4cvc58internal4expr9NodeValue15markForDeletionEv(ptr noundef nonnull align 8 dereferenceable(24) %32)
          to label %_ZSt8_DestroyIN4cvc58internal12NodeTemplateILb1EEEEvPT_.exit.i.i.i.i unwind label %42

42:                                               ; preds = %41
  %43 = landingpad { ptr, i32 }
          catch ptr null
  %44 = extractvalue { ptr, i32 } %43, 0
  call void @__clang_call_terminate(ptr %44) #35
  unreachable

_ZSt8_DestroyIN4cvc58internal12NodeTemplateILb1EEEEvPT_.exit.i.i.i.i: ; preds = %41, %35, %.lr.ph.i.i.i.i
  %45 = getelementptr inbounds nuw i8, ptr %.05.i.i.i.i, i64 8
  %.not.i.i.i.i = icmp eq ptr %45, %31
  br i1 %.not.i.i.i.i, label %_ZSt8_DestroyIPN4cvc58internal12NodeTemplateILb1EEES3_EvT_S5_RSaIT0_E.exitthread-pre-split.i, label %.lr.ph.i.i.i.i, !llvm.loop !121

_ZSt8_DestroyIPN4cvc58internal12NodeTemplateILb1EEES3_EvT_S5_RSaIT0_E.exitthread-pre-split.i: ; preds = %_ZSt8_DestroyIN4cvc58internal12NodeTemplateILb1EEEEvPT_.exit.i.i.i.i
  %.pr.i = load ptr, ptr %4, align 8, !tbaa !118
  br label %_ZSt8_DestroyIPN4cvc58internal12NodeTemplateILb1EEES3_EvT_S5_RSaIT0_E.exit.i

_ZSt8_DestroyIPN4cvc58internal12NodeTemplateILb1EEES3_EvT_S5_RSaIT0_E.exit.i: ; preds = %_ZSt8_DestroyIPN4cvc58internal12NodeTemplateILb1EEES3_EvT_S5_RSaIT0_E.exitthread-pre-split.i, %28
  %46 = phi ptr [ %.pr.i, %_ZSt8_DestroyIPN4cvc58internal12NodeTemplateILb1EEES3_EvT_S5_RSaIT0_E.exitthread-pre-split.i ], [ %29, %28 ]
  %.not.i.i.i = icmp eq ptr %46, null
  br i1 %.not.i.i.i, label %_ZNSt6vectorIN4cvc58internal12NodeTemplateILb1EEESaIS3_EED2Ev.exit, label %47

47:                                               ; preds = %_ZSt8_DestroyIPN4cvc58internal12NodeTemplateILb1EEES3_EvT_S5_RSaIT0_E.exit.i
  %48 = getelementptr inbounds nuw i8, ptr %4, i64 16
  %49 = load ptr, ptr %48, align 8, !tbaa !122
  %50 = ptrtoint ptr %49 to i64
  %51 = ptrtoint ptr %46 to i64
  %52 = sub i64 %50, %51
  call void @_ZdlPvm(ptr noundef nonnull %46, i64 noundef %52) #34
  br label %_ZNSt6vectorIN4cvc58internal12NodeTemplateILb1EEESaIS3_EED2Ev.exit

_ZNSt6vectorIN4cvc58internal12NodeTemplateILb1EEESaIS3_EED2Ev.exit: ; preds = %_ZSt8_DestroyIPN4cvc58internal12NodeTemplateILb1EEES3_EvT_S5_RSaIT0_E.exit.i, %47
  call void @llvm.lifetime.end.p0(i64 24, ptr nonnull %4) #33
  %53 = load ptr, ptr %3, align 8, !tbaa !68
  %54 = load i64, ptr %53, align 8
  %55 = and i64 %54, 1152920405095219200
  %.not.i.i = icmp eq i64 %55, 1152920405095219200
  br i1 %.not.i.i, label %_ZN4cvc58internal8TypeNodeD2Ev.exit, label %56, !prof !32

56:                                               ; preds = %_ZNSt6vectorIN4cvc58internal12NodeTemplateILb1EEESaIS3_EED2Ev.exit
  %57 = add i64 %54, 1152920405095219200
  %58 = and i64 %57, 1152920405095219200
  %59 = and i64 %54, -1152920405095219201
  %60 = or disjoint i64 %58, %59
  store i64 %60, ptr %53, align 8
  %61 = icmp eq i64 %58, 0
  br i1 %61, label %62, label %_ZN4cvc58internal8TypeNodeD2Ev.exit, !prof !32

62:                                               ; preds = %56
  invoke void @_ZN4cvc58internal4expr9NodeValue15markForDeletionEv(ptr noundef nonnull align 8 dereferenceable(24) %53)
          to label %_ZN4cvc58internal8TypeNodeD2Ev.exit unwind label %63

63:                                               ; preds = %62
  %64 = landingpad { ptr, i32 }
          catch ptr null
  %65 = extractvalue { ptr, i32 } %64, 0
  call void @__clang_call_terminate(ptr %65) #35
  unreachable

_ZN4cvc58internal8TypeNodeD2Ev.exit:              ; preds = %_ZNSt6vectorIN4cvc58internal12NodeTemplateILb1EEESaIS3_EED2Ev.exit, %56, %62
  ret void

66:                                               ; preds = %_ZN4cvc56parser3Cmd14sortToTypeNodeERKNS_4SortE.exit
  %67 = landingpad { ptr, i32 }
          cleanup
  br label %70

68:                                               ; preds = %_ZN4cvc56parser3Cmd17termVectorToNodesERKSt6vectorINS_4TermESaIS3_EE.exit
  %69 = landingpad { ptr, i32 }
          cleanup
  call void @_ZNSt6vectorIN4cvc58internal12NodeTemplateILb1EEESaIS3_EED2Ev(ptr noundef nonnull align 8 dereferenceable(24) %4) #33
  br label %70

70:                                               ; preds = %68, %66
  %.pn = phi { ptr, i32 } [ %69, %68 ], [ %67, %66 ]
  call void @llvm.lifetime.end.p0(i64 24, ptr nonnull %4) #33
  call void @_ZN4cvc58internal8TypeNodeD2Ev(ptr noundef nonnull align 8 dereferenceable(8) %3) #33
  resume { ptr, i32 } %.pn
}